target datalayout = "e-m:e-p270:32:32-p271:32:32-p272:64:64-i64:64-i128:128-f80:128-n8:16:32:64-S128"
target triple = "x86_64-pc-linux-gnu"

%struct._zend_phpdbg_globals = type { [11 x %struct._zend_array], %struct._zend_array, %struct._zend_array, ptr, ptr, %struct.phpdbg_frame_t, i32, ptr, %struct.phpdbg_lexer_data, ptr, %struct.sigaction, i32, i64, %struct.phpdbg_btree, %struct.phpdbg_btree, %struct._zend_array, %struct._zend_array, %struct._zend_array, %struct._zend_array, ptr, ptr, i8, ptr, ptr, ptr, i64, ptr, %struct._zval_struct, i32, i32, i8, i8, ptr, ptr, ptr, %struct._zend_array, ptr, ptr, ptr, [3 x %struct.anon.8], ptr, %struct.anon.9, i64, [2 x ptr], [3 x ptr], ptr, i8, ptr, ptr, [500 x i8], i32, %struct.phpdbg_signal_safe_mem, ptr, i64, ptr, i64 }
%struct.phpdbg_frame_t = type { i32, ptr, ptr }
%struct.phpdbg_lexer_data = type { i32, ptr, ptr, ptr, ptr, i32 }
%struct.sigaction = type { %union.anon.2, %struct.__sigset_t, i32, ptr }
%union.anon.2 = type { ptr }
%struct.__sigset_t = type { [16 x i64] }
%struct.phpdbg_btree = type { i64, i64, i8, ptr }
%struct._zval_struct = type { %union._zend_value, %union.anon.4, %union.anon.7 }
%union._zend_value = type { i64 }
%union.anon.4 = type { i32 }
%union.anon.7 = type { i32 }
%struct._zend_array = type { %struct._zend_refcounted_h, %union.anon.0, i32, %union.anon.1, i32, i32, i32, i32, i64, ptr }
%struct._zend_refcounted_h = type { i32, %union.anon }
%union.anon = type { i32 }
%union.anon.0 = type { i32 }
%union.anon.1 = type { ptr }
%struct.anon.8 = type { i32 }
%struct.anon.9 = type { i8, i32, i32, ptr, i32 }
%struct.phpdbg_signal_safe_mem = type { ptr, i8, ptr, ptr }
%struct._zend_llist = type { ptr, ptr, i64, i64, ptr, i8, ptr }
%struct._zend_executor_globals = type { %struct._zval_struct, %struct._zval_struct, [32 x ptr], ptr, ptr, %struct._zend_array, %struct._zend_array, ptr, i32, i32, ptr, ptr, ptr, ptr, ptr, ptr, i64, ptr, ptr, i32, i32, i64, i32, i32, i32, i8, i8, %struct.zend_atomic_bool_s, %struct.zend_atomic_bool_s, ptr, i64, ptr, ptr, %struct._zend_array, %struct._zend_array, i32, i8, %struct._zval_struct, %struct._zval_struct, %struct._zend_stack, %struct._zend_stack, %struct._zend_stack, ptr, i32, i32, i64, ptr, ptr, ptr, %struct._zend_objects_store, ptr, ptr, ptr, [3 x %struct._zend_op], ptr, i8, i8, i64, i32, i32, ptr, [16 x %struct._HashTableIterator], ptr, %union._zend_function, %struct._zend_op, %struct._zend_array, i64, %struct.zend_get_gc_buffer, ptr, ptr, ptr, i64, i8, i32, ptr, ptr, i64, %struct._zend_call_stack, i64, i64, [6 x ptr] }
%struct.zend_atomic_bool_s = type { i8 }
%struct._zend_stack = type { i32, i32, i32, ptr }
%struct._zend_objects_store = type { ptr, i32, i32, i32 }
%struct._HashTableIterator = type { ptr, i32, i32 }
%union._zend_function = type { %struct._zend_op_array }
%struct._zend_op_array = type { i8, [3 x i8], i32, ptr, ptr, ptr, i32, i32, ptr, ptr, ptr, ptr, i32, i32, i32, i32, ptr, ptr, ptr, ptr, ptr, i32, i32, ptr, ptr, ptr, i32, i32, i32, i32, ptr, ptr, [6 x ptr] }
%struct._zend_op = type { ptr, %union._znode_op, %union._znode_op, %union._znode_op, i32, i32, i8, i8, i8, i8 }
%union._znode_op = type { i32 }
%struct.zend_get_gc_buffer = type { ptr, ptr, ptr }
%struct._zend_call_stack = type { ptr, i64 }
%struct._zend_compiler_globals = type { %struct._zend_stack, ptr, ptr, i32, ptr, ptr, ptr, ptr, i8, i8, i8, i8, i8, %struct._zend_llist, ptr, i8, i8, i8, i8, ptr, i32, i32, %struct._zend_oparray_context, %struct._zend_file_context, ptr, %struct._zend_array, ptr, i64, i8, i8, i8, ptr, ptr, %struct._zend_stack, ptr, i32, ptr, ptr, i64, i64, ptr, ptr, ptr, ptr, i32, %struct._zend_stack }
%struct._zend_oparray_context = type { i32, i32, i32, i32, i32, i32, i32, ptr, ptr, i8 }
%struct._zend_file_context = type { %struct._zend_declarables, ptr, i8, i8, ptr, ptr, ptr, %struct._zend_array }
%struct._zend_declarables = type { i64 }
%struct._zend_output_globals = type { %struct._zend_stack, ptr, ptr, ptr, i32, i32 }
%struct._phpdbg_param = type { i32, i64, i64, %struct.anon.10, %struct.anon.11, ptr, i64, ptr, ptr }
%struct.anon.10 = type { ptr, i64 }
%struct.anon.11 = type { ptr, ptr }
%struct.__jmp_buf_tag = type { [8 x i64], i32, %struct.__sigset_t }
%struct._zend_vm_stack = type { ptr, ptr, ptr }

@.str.61 = private unnamed_addr constant [2 x i8] c"\0A\00", align 1
@phpdbg_globals = external global %struct._zend_phpdbg_globals, align 8
@executor_globals = external global %struct._zend_executor_globals, align 8
@compiler_globals = external global %struct._zend_compiler_globals, align 8
@output_globals = external global %struct._zend_output_globals, align 8
@.str.95 = private unnamed_addr constant [42 x i8] c"Could not fetch data, invalid data source\00", align 1
@.str.96 = private unnamed_addr constant [14 x i8] c"eval()'d code\00", align 1

; Function Attrs: nounwind uwtable
define hidden i32 @phpdbg_do_ev(ptr noundef %0) #0 {
  %2 = alloca ptr, align 8
  %3 = alloca ptr, align 8
  %4 = alloca i32, align 4
  %5 = alloca ptr, align 8
  %6 = alloca i8, align 1
  %7 = alloca %struct._zval_struct, align 8
  %8 = alloca ptr, align 8
  %9 = alloca ptr, align 8
  %10 = alloca ptr, align 8
  %11 = alloca ptr, align 8
  %12 = alloca %struct._zend_output_globals, align 8
  %13 = alloca ptr, align 8
  %14 = alloca [1 x %struct.__jmp_buf_tag], align 16
  %15 = alloca ptr, align 8
  %16 = alloca [1 x %struct.__jmp_buf_tag], align 16
  store ptr %0, ptr %5, align 8
  %17 = load i64, ptr getelementptr inbounds (%struct._zend_phpdbg_globals, ptr @phpdbg_globals, i32 0, i32 53), align 8
  %18 = and i64 %17, 8192
  %19 = icmp eq i64 %18, 8192
  %20 = zext i1 %19 to i8
  store i8 %20, ptr %6, align 1
  %21 = load ptr, ptr getelementptr inbounds (%struct._zend_executor_globals, ptr @executor_globals, i32 0, i32 17), align 8
  store ptr %21, ptr %8, align 8
  %22 = load ptr, ptr getelementptr inbounds (%struct._zend_executor_globals, ptr @executor_globals, i32 0, i32 15), align 8
  store ptr %22, ptr %9, align 8
  store ptr null, ptr %10, align 8
  store ptr @output_globals, ptr %11, align 8
  %23 = load ptr, ptr %11, align 8
  call void @llvm.memcpy.p0.p0.i64(ptr align 8 %12, ptr align 8 %23, i64 56, i1 false)
  %24 = load ptr, ptr %11, align 8
  call void @llvm.memset.p0.i64(ptr align 8 %24, i8 0, i64 56, i1 false)
  %25 = call i32 @php_output_activate()
  %26 = load ptr, ptr getelementptr inbounds (%struct._zend_executor_globals, ptr @executor_globals, i32 0, i32 13), align 8
  %27 = load ptr, ptr %9, align 8
  %28 = getelementptr inbounds %struct._zend_vm_stack, ptr %27, i32 0, i32 0
  store ptr %26, ptr %28, align 8
  %29 = load i64, ptr getelementptr inbounds (%struct._zend_phpdbg_globals, ptr @phpdbg_globals, i32 0, i32 53), align 8
  %30 = and i64 %29, 2147483648
  %31 = icmp ne i64 %30, 0
  br i1 %31, label %32, label %52

32:                                               ; preds = %1
  %33 = load ptr, ptr getelementptr inbounds (%struct._zend_phpdbg_globals, ptr @phpdbg_globals, i32 0, i32 52), align 8
  store ptr %33, ptr %13, align 8
  store ptr %14, ptr getelementptr inbounds (%struct._zend_phpdbg_globals, ptr @phpdbg_globals, i32 0, i32 52), align 8
  %34 = getelementptr inbounds [1 x %struct.__jmp_buf_tag], ptr %14, i64 0, i64 0
  %35 = call i32 @__sigsetjmp(ptr noundef %34, i32 noundef 0) #20
  %36 = icmp eq i32 %35, 0
  br i1 %36, label %37, label %45

37:                                               ; preds = %32
  %38 = load ptr, ptr %5, align 8
  %39 = getelementptr inbounds %struct._phpdbg_param, ptr %38, i32 0, i32 5
  %40 = load ptr, ptr %39, align 8
  %41 = load ptr, ptr %5, align 8
  %42 = getelementptr inbounds %struct._phpdbg_param, ptr %41, i32 0, i32 6
  %43 = load i64, ptr %42, align 8
  %44 = call i32 @phpdbg_parse_variable(ptr noundef %40, i64 noundef %43, ptr noundef getelementptr inbounds (%struct._zend_executor_globals, ptr @executor_globals, i32 0, i32 5), i64 noundef 0, ptr noundef @phpdbg_output_ev_variable, i1 noundef zeroext false)
  br label %49

45:                                               ; preds = %32
  %46 = load ptr, ptr %13, align 8
  store ptr %46, ptr getelementptr inbounds (%struct._zend_phpdbg_globals, ptr @phpdbg_globals, i32 0, i32 52), align 8
  %47 = load i32, ptr getelementptr inbounds (%struct._zend_phpdbg_globals, ptr @phpdbg_globals, i32 0, i32 39, i64 1), align 4
  %48 = call i32 (i32, i32, ptr, ...) @phpdbg_print(i32 noundef 1, i32 noundef %47, ptr noundef @.str.95)
  br label %49

49:                                               ; preds = %45, %37
  %50 = load ptr, ptr %13, align 8
  store ptr %50, ptr getelementptr inbounds (%struct._zend_phpdbg_globals, ptr @phpdbg_globals, i32 0, i32 52), align 8
  call void @php_output_deactivate()
  %51 = load ptr, ptr %11, align 8
  call void @llvm.memcpy.p0.p0.i64(ptr align 8 %51, ptr align 8 %12, i64 56, i1 false)
  store i32 0, ptr %4, align 4
  br label %137

52:                                               ; preds = %1
  %53 = load i64, ptr getelementptr inbounds (%struct._zend_phpdbg_globals, ptr @phpdbg_globals, i32 0, i32 53), align 8
  %54 = and i64 %53, 16777216
  %55 = icmp ne i64 %54, 0
  br i1 %55, label %59, label %56

56:                                               ; preds = %52
  %57 = load i64, ptr getelementptr inbounds (%struct._zend_phpdbg_globals, ptr @phpdbg_globals, i32 0, i32 53), align 8
  %58 = and i64 %57, -8193
  store i64 %58, ptr getelementptr inbounds (%struct._zend_phpdbg_globals, ptr @phpdbg_globals, i32 0, i32 53), align 8
  br label %59

59:                                               ; preds = %56, %52
  %60 = load i64, ptr getelementptr inbounds (%struct._zend_phpdbg_globals, ptr @phpdbg_globals, i32 0, i32 53), align 8
  %61 = or i64 %60, 4096
  store i64 %61, ptr getelementptr inbounds (%struct._zend_phpdbg_globals, ptr @phpdbg_globals, i32 0, i32 53), align 8
  %62 = load ptr, ptr getelementptr inbounds (%struct._zend_executor_globals, ptr @executor_globals, i32 0, i32 7), align 8
  store ptr %62, ptr %15, align 8
  store ptr %16, ptr getelementptr inbounds (%struct._zend_executor_globals, ptr @executor_globals, i32 0, i32 7), align 8
  %63 = getelementptr inbounds [1 x %struct.__jmp_buf_tag], ptr %16, i64 0, i64 0
  %64 = call i32 @__sigsetjmp(ptr noundef %63, i32 noundef 0) #20
  %65 = icmp eq i32 %64, 0
  br i1 %65, label %66, label %87

66:                                               ; preds = %59
  %67 = load ptr, ptr %5, align 8
  %68 = getelementptr inbounds %struct._phpdbg_param, ptr %67, i32 0, i32 5
  %69 = load ptr, ptr %68, align 8
  %70 = load ptr, ptr %5, align 8
  %71 = getelementptr inbounds %struct._phpdbg_param, ptr %70, i32 0, i32 6
  %72 = load i64, ptr %71, align 8
  %73 = call i32 @zend_eval_stringl(ptr noundef %69, i64 noundef %72, ptr noundef %7, ptr noundef @.str.96)
  %74 = icmp eq i32 %73, 0
  br i1 %74, label %75, label %86

75:                                               ; preds = %66
  %76 = load ptr, ptr getelementptr inbounds (%struct._zend_executor_globals, ptr @executor_globals, i32 0, i32 50), align 8
  %77 = icmp ne ptr %76, null
  br i1 %77, label %78, label %82

78:                                               ; preds = %75
  %79 = load ptr, ptr getelementptr inbounds (%struct._zend_executor_globals, ptr @executor_globals, i32 0, i32 50), align 8
  store ptr %79, ptr %10, align 8
  %80 = load ptr, ptr getelementptr inbounds (%struct._zend_executor_globals, ptr @executor_globals, i32 0, i32 50), align 8
  %81 = call i32 @zend_exception_error(ptr noundef %80, i32 noundef 1)
  br label %85

82:                                               ; preds = %75
  call void @zend_print_zval_r(ptr noundef %7, i32 noundef 0)
  %83 = load i32, ptr getelementptr inbounds (%struct._zend_phpdbg_globals, ptr @phpdbg_globals, i32 0, i32 39, i64 1), align 4
  %84 = call i32 (i32, ptr, ...) @phpdbg_out_internal(i32 noundef %83, ptr noundef @.str.61)
  call void @zval_ptr_dtor(ptr noundef %7)
  br label %85

85:                                               ; preds = %82, %78
  br label %86

86:                                               ; preds = %85, %66
  br label %122

87:                                               ; preds = %59
  %88 = load ptr, ptr %15, align 8
  store ptr %88, ptr getelementptr inbounds (%struct._zend_executor_globals, ptr @executor_globals, i32 0, i32 7), align 8
  store i8 1, ptr getelementptr inbounds (%struct._zend_phpdbg_globals, ptr @phpdbg_globals, i32 0, i32 31), align 1
  %89 = load ptr, ptr %10, align 8
  %90 = icmp ne ptr %89, null
  br i1 %90, label %91, label %113

91:                                               ; preds = %87
  %92 = load ptr, ptr %10, align 8
  store ptr %92, ptr %3, align 8
  %93 = load ptr, ptr %3, align 8
  store ptr %93, ptr %2, align 8
  %94 = load ptr, ptr %2, align 8
  %95 = load i32, ptr %94, align 4
  %96 = icmp ugt i32 %95, 0
  call void @llvm.assume(i1 %96)
  %97 = load ptr, ptr %2, align 8
  %98 = load i32, ptr %97, align 4
  %99 = add i32 %98, -1
  store i32 %99, ptr %97, align 4
  %100 = icmp eq i32 %99, 0
  br i1 %100, label %101, label %103

101:                                              ; preds = %91
  %102 = load ptr, ptr %3, align 8
  call void @zend_objects_store_del(ptr noundef %102) #15
  br label %112

103:                                              ; preds = %91
  %104 = load ptr, ptr %3, align 8
  %105 = getelementptr inbounds %struct._zend_refcounted_h, ptr %104, i32 0, i32 1
  %106 = load i32, ptr %105, align 4
  %107 = and i32 %106, -1008
  %108 = icmp eq i32 %107, 0
  br i1 %108, label %109, label %111

109:                                              ; preds = %103
  %110 = load ptr, ptr %3, align 8
  call void @gc_possible_root(ptr noundef %110) #15
  br label %111

111:                                              ; preds = %109, %103
  br label %112

112:                                              ; preds = %111, %101
  br label %113

113:                                              ; preds = %112, %87
  %114 = load ptr, ptr %8, align 8
  store ptr %114, ptr getelementptr inbounds (%struct._zend_executor_globals, ptr @executor_globals, i32 0, i32 17), align 8
  %115 = load ptr, ptr %9, align 8
  %116 = getelementptr inbounds %struct._zend_vm_stack, ptr %115, i32 0, i32 0
  %117 = load ptr, ptr %116, align 8
  store ptr %117, ptr getelementptr inbounds (%struct._zend_executor_globals, ptr @executor_globals, i32 0, i32 13), align 8
  %118 = load ptr, ptr %9, align 8
  %119 = getelementptr inbounds %struct._zend_vm_stack, ptr %118, i32 0, i32 1
  %120 = load ptr, ptr %119, align 8
  store ptr %120, ptr getelementptr inbounds (%struct._zend_executor_globals, ptr @executor_globals, i32 0, i32 14), align 8
  %121 = load ptr, ptr %9, align 8
  store ptr %121, ptr getelementptr inbounds (%struct._zend_executor_globals, ptr @executor_globals, i32 0, i32 15), align 8
  store i32 0, ptr getelementptr inbounds (%struct._zend_executor_globals, ptr @executor_globals, i32 0, i32 9), align 4
  br label %122

122:                                              ; preds = %113, %86
  %123 = load ptr, ptr %15, align 8
  store ptr %123, ptr getelementptr inbounds (%struct._zend_executor_globals, ptr @executor_globals, i32 0, i32 7), align 8
  %124 = load i64, ptr getelementptr inbounds (%struct._zend_phpdbg_globals, ptr @phpdbg_globals, i32 0, i32 53), align 8
  %125 = and i64 %124, -4097
  store i64 %125, ptr getelementptr inbounds (%struct._zend_phpdbg_globals, ptr @phpdbg_globals, i32 0, i32 53), align 8
  %126 = load i8, ptr %6, align 1
  %127 = trunc i8 %126 to i1
  br i1 %127, label %128, label %135

128:                                              ; preds = %122
  %129 = load i64, ptr getelementptr inbounds (%struct._zend_phpdbg_globals, ptr @phpdbg_globals, i32 0, i32 53), align 8
  %130 = and i64 %129, 16777216
  %131 = icmp ne i64 %130, 0
  br i1 %131, label %135, label %132

132:                                              ; preds = %128
  %133 = load i64, ptr getelementptr inbounds (%struct._zend_phpdbg_globals, ptr @phpdbg_globals, i32 0, i32 53), align 8
  %134 = or i64 %133, 8192
  store i64 %134, ptr getelementptr inbounds (%struct._zend_phpdbg_globals, ptr @phpdbg_globals, i32 0, i32 53), align 8
  br label %135

135:                                              ; preds = %132, %128, %122
  store i8 0, ptr getelementptr inbounds (%struct._zend_compiler_globals, ptr @compiler_globals, i32 0, i32 11), align 1
  call void @php_output_deactivate()
  %136 = load ptr, ptr %11, align 8
  call void @llvm.memcpy.p0.p0.i64(ptr align 8 %136, ptr align 8 %12, i64 56, i1 false)
  store i32 0, ptr %4, align 4
  br label %137

137:                                              ; preds = %135, %49
  %138 = load i32, ptr %4, align 4
  ret i32 %138
}