; Function Attrs: nounwind uwtable
define hidden noundef i32 @phpdbg_do_ev(ptr nocapture noundef readonly %0) #0 {
  %2 = alloca %struct._zval_struct, align 8
  %3 = alloca %struct._zend_output_globals, align 8
  %4 = alloca [1 x %struct.__jmp_buf_tag], align 16
  %5 = alloca [1 x %struct.__jmp_buf_tag], align 16
  %6 = load i64, ptr getelementptr inbounds (%struct._zend_phpdbg_globals, ptr @phpdbg_globals, i64 0, i32 53), align 8
  %7 = and i64 %6, 8192
  %.not = icmp ne i64 %7, 0
  %8 = load ptr, ptr getelementptr inbounds (%struct._zend_executor_globals, ptr @executor_globals, i64 0, i32 17), align 8
  %9 = load ptr, ptr getelementptr inbounds (%struct._zend_executor_globals, ptr @executor_globals, i64 0, i32 15), align 8
  call void @llvm.memcpy.p0.p0.i64(ptr noundef nonnull align 8 dereferenceable(56) %3, ptr noundef nonnull align 8 dereferenceable(56) @output_globals, i64 56, i1 false)
  call void @llvm.memset.p0.i64(ptr noundef nonnull align 8 dereferenceable(56) @output_globals, i8 0, i64 56, i1 false)
  %10 = call i32 @php_output_activate() #24
  %11 = load ptr, ptr getelementptr inbounds (%struct._zend_executor_globals, ptr @executor_globals, i64 0, i32 13), align 8
  store ptr %11, ptr %9, align 8
  %12 = load i64, ptr getelementptr inbounds (%struct._zend_phpdbg_globals, ptr @phpdbg_globals, i64 0, i32 53), align 8
  %13 = and i64 %12, 2147483648
  %.not26 = icmp eq i64 %13, 0
  br i1 %.not26, label %28, label %14

14:                                               ; preds = %1
  %15 = load ptr, ptr getelementptr inbounds (%struct._zend_phpdbg_globals, ptr @phpdbg_globals, i64 0, i32 52), align 8
  store ptr %4, ptr getelementptr inbounds (%struct._zend_phpdbg_globals, ptr @phpdbg_globals, i64 0, i32 52), align 8
  %16 = call i32 @__sigsetjmp(ptr noundef nonnull %4, i32 noundef 0) #29
  %17 = icmp eq i32 %16, 0
  br i1 %17, label %18, label %24

18:                                               ; preds = %14
  %19 = getelementptr inbounds i8, ptr %0, i64 56
  %20 = load ptr, ptr %19, align 8
  %21 = getelementptr inbounds i8, ptr %0, i64 64
  %22 = load i64, ptr %21, align 8
  %23 = call i32 @phpdbg_parse_variable(ptr noundef %20, i64 noundef %22, ptr noundef nonnull getelementptr inbounds (%struct._zend_executor_globals, ptr @executor_globals, i64 0, i32 5), i64 noundef 0, ptr noundef nonnull @phpdbg_output_ev_variable, i1 noundef zeroext false) #24
  br label %27

24:                                               ; preds = %14
  store ptr %15, ptr getelementptr inbounds (%struct._zend_phpdbg_globals, ptr @phpdbg_globals, i64 0, i32 52), align 8
  %25 = load i32, ptr getelementptr inbounds (%struct._zend_phpdbg_globals, ptr @phpdbg_globals, i64 0, i32 39, i64 1), align 4
  %26 = call i32 (i32, i32, ptr, ...) @phpdbg_print(i32 noundef 1, i32 noundef %25, ptr noundef nonnull @.str.95) #24
  br label %27

27:                                               ; preds = %24, %18
  store ptr %15, ptr getelementptr inbounds (%struct._zend_phpdbg_globals, ptr @phpdbg_globals, i64 0, i32 52), align 8
  br label %58

28:                                               ; preds = %1
  %29 = and i64 %12, 16777216
  %.not27 = icmp eq i64 %29, 0
  %30 = and i64 %12, -2164273153
  %spec.select30 = select i1 %.not27, i64 %30, i64 %12
  %31 = or i64 %spec.select30, 4096
  store i64 %31, ptr getelementptr inbounds (%struct._zend_phpdbg_globals, ptr @phpdbg_globals, i64 0, i32 53), align 8
  %32 = load ptr, ptr getelementptr inbounds (%struct._zend_executor_globals, ptr @executor_globals, i64 0, i32 7), align 8
  store ptr %5, ptr getelementptr inbounds (%struct._zend_executor_globals, ptr @executor_globals, i64 0, i32 7), align 8
  %33 = call i32 @__sigsetjmp(ptr noundef nonnull %5, i32 noundef 0) #29
  %34 = icmp eq i32 %33, 0
  br i1 %34, label %35, label %49

35:                                               ; preds = %28
  %36 = getelementptr inbounds i8, ptr %0, i64 56
  %37 = load ptr, ptr %36, align 8
  %38 = getelementptr inbounds i8, ptr %0, i64 64
  %39 = load i64, ptr %38, align 8
  %40 = call i32 @zend_eval_stringl(ptr noundef %37, i64 noundef %39, ptr noundef nonnull %2, ptr noundef nonnull @.str.96) #24
  %41 = icmp eq i32 %40, 0
  br i1 %41, label %42, label %53

42:                                               ; preds = %35
  %43 = load ptr, ptr getelementptr inbounds (%struct._zend_executor_globals, ptr @executor_globals, i64 0, i32 50), align 8
  %.not28 = icmp eq ptr %43, null
  br i1 %.not28, label %46, label %44

44:                                               ; preds = %42
  %45 = call i32 @zend_exception_error(ptr noundef nonnull %43, i32 noundef 1) #24
  br label %53

46:                                               ; preds = %42
  call void @zend_print_zval_r(ptr noundef nonnull %2, i32 noundef 0) #24
  %47 = load i32, ptr getelementptr inbounds (%struct._zend_phpdbg_globals, ptr @phpdbg_globals, i64 0, i32 39, i64 1), align 4
  %48 = call i32 (i32, ptr, ...) @phpdbg_out_internal(i32 noundef %47, ptr noundef nonnull @.str.61) #24
  call void @zval_ptr_dtor(ptr noundef nonnull %2) #24
  br label %53

49:                                               ; preds = %28
  store ptr %32, ptr getelementptr inbounds (%struct._zend_executor_globals, ptr @executor_globals, i64 0, i32 7), align 8
  store i8 1, ptr getelementptr inbounds (%struct._zend_phpdbg_globals, ptr @phpdbg_globals, i64 0, i32 31), align 1
  store ptr %8, ptr getelementptr inbounds (%struct._zend_executor_globals, ptr @executor_globals, i64 0, i32 17), align 8
  %50 = load ptr, ptr %9, align 8
  store ptr %50, ptr getelementptr inbounds (%struct._zend_executor_globals, ptr @executor_globals, i64 0, i32 13), align 8
  %51 = getelementptr inbounds i8, ptr %9, i64 8
  %52 = load ptr, ptr %51, align 8
  store ptr %52, ptr getelementptr inbounds (%struct._zend_executor_globals, ptr @executor_globals, i64 0, i32 14), align 8
  store ptr %9, ptr getelementptr inbounds (%struct._zend_executor_globals, ptr @executor_globals, i64 0, i32 15), align 8
  store i32 0, ptr getelementptr inbounds (%struct._zend_executor_globals, ptr @executor_globals, i64 0, i32 9), align 4
  br label %53

53:                                               ; preds = %35, %46, %44, %49
  store ptr %32, ptr getelementptr inbounds (%struct._zend_executor_globals, ptr @executor_globals, i64 0, i32 7), align 8
  %54 = load i64, ptr getelementptr inbounds (%struct._zend_phpdbg_globals, ptr @phpdbg_globals, i64 0, i32 53), align 8
  %55 = and i64 %54, -4097
  %56 = and i64 %54, 16777216
  %.not29 = icmp eq i64 %56, 0
  %or.cond = select i1 %.not, i1 %.not29, i1 false
  %57 = or i64 %55, 8192
  %spec.select = select i1 %or.cond, i64 %57, i64 %55
  store i64 %spec.select, ptr getelementptr inbounds (%struct._zend_phpdbg_globals, ptr @phpdbg_globals, i64 0, i32 53), align 8
  store i8 0, ptr getelementptr inbounds (%struct._zend_compiler_globals, ptr @compiler_globals, i64 0, i32 11), align 1
  br label %58

58:                                               ; preds = %53, %27
  call void @php_output_deactivate() #24
  call void @llvm.memcpy.p0.p0.i64(ptr noundef nonnull align 8 dereferenceable(56) @output_globals, ptr noundef nonnull align 8 dereferenceable(56) %3, i64 56, i1 false)
  ret i32 0
}